; Function Attrs: nounwind uwtable
define hidden i32 @methodLocation(ptr noundef %0, ptr noundef %1, ptr noundef %2) local_unnamed_addr #0 {
  %4 = load ptr, ptr @gdata, align 8
  %5 = getelementptr inbounds i8, ptr %4, i64 528
  %6 = load i32, ptr %5, align 8
  %7 = and i32 %6, 4
  %.not = icmp eq i32 %7, 0
  br i1 %.not, label %9, label %8

8:                                                ; preds = %3
  tail call void @log_message_begin(ptr noundef nonnull @.str.45, ptr noundef nonnull @.str.4, i32 noundef 712) #14
  tail call void (ptr, ...) @log_message_end(ptr noundef nonnull @.str.9, ptr noundef nonnull @.str.67) #14
  %.pre = load ptr, ptr @gdata, align 8
  br label %9

9:                                                ; preds = %3, %8
  %10 = phi ptr [ %4, %3 ], [ %.pre, %8 ]
  %11 = load ptr, ptr %10, align 8
  %12 = load ptr, ptr %11, align 8
  %13 = getelementptr inbounds i8, ptr %12, i64 560
  %14 = load ptr, ptr %13, align 8
  %15 = tail call i32 %14(ptr noundef nonnull %11, ptr noundef %0, ptr noundef %1, ptr noundef %2) #14
  ret i32 %15
}